target datalayout = "e-m:e-p270:32:32-p271:32:32-p272:64:64-i64:64-i128:128-f80:128-n8:16:32:64-S128"
target triple = "x86_64-pc-linux-gnu"

%struct.OSInfo = type { ptr, ptr, i8, ptr, i32, ptr, i32, ptr }
%struct.ClusterInfo = type { %struct.ControlData, ptr, %struct.DbInfoArr, ptr, ptr, ptr, ptr, ptr, i16, i32, [64 x i8], i32, ptr, i32 }
%struct.ControlData = type { i32, i32, [25 x i8], i32, i32, i32, i32, i32, i32, i32, i32, i32, i32, i32, i32, i32, i32, i32, i32, i8, i8, i32 }
%struct.DbInfoArr = type { ptr, i32 }
%struct.PQExpBufferData = type { ptr, i64, i64 }

@os_info = external global %struct.OSInfo, align 8
@.str.38 = private unnamed_addr constant [8 x i8] c"dbname=\00", align 1
@.str.39 = private unnamed_addr constant [7 x i8] c" user=\00", align 1
@.str.40 = private unnamed_addr constant [9 x i8] c" port=%d\00", align 1
@.str.41 = private unnamed_addr constant [7 x i8] c" host=\00", align 1

; Function Attrs: nounwind uwtable
define internal ptr @get_db_conn(ptr noundef %0, ptr noundef %1) #0 {
  %3 = alloca ptr, align 8
  %4 = alloca ptr, align 8
  %5 = alloca %struct.PQExpBufferData, align 8
  %6 = alloca ptr, align 8
  store ptr %0, ptr %3, align 8
  store ptr %1, ptr %4, align 8
  call void @llvm.lifetime.start.p0(i64 24, ptr %5) #9
  call void @llvm.lifetime.start.p0(i64 8, ptr %6) #9
  call void @initPQExpBuffer(ptr noundef %5)
  call void @appendPQExpBufferStr(ptr noundef %5, ptr noundef @.str.38)
  %7 = load ptr, ptr %4, align 8
  call void @appendConnStrVal(ptr noundef %5, ptr noundef %7)
  call void @appendPQExpBufferStr(ptr noundef %5, ptr noundef @.str.39)
  %8 = load ptr, ptr getelementptr inbounds nuw (%struct.OSInfo, ptr @os_info, i32 0, i32 1), align 8
  call void @appendConnStrVal(ptr noundef %5, ptr noundef %8)
  %9 = load ptr, ptr %3, align 8
  %10 = getelementptr inbounds nuw %struct.ClusterInfo, ptr %9, i32 0, i32 8
  %11 = load i16, ptr %10, align 8
  %12 = zext i16 %11 to i32
  call void (ptr, ptr, ...) @appendPQExpBuffer(ptr noundef %5, ptr noundef @.str.40, i32 noundef %12)
  %13 = load ptr, ptr %3, align 8
  %14 = getelementptr inbounds nuw %struct.ClusterInfo, ptr %13, i32 0, i32 7
  %15 = load ptr, ptr %14, align 8
  %16 = icmp ne ptr %15, null
  br i1 %16, label %17, label %21

17:                                               ; preds = %2
  call void @appendPQExpBufferStr(ptr noundef %5, ptr noundef @.str.41)
  %18 = load ptr, ptr %3, align 8
  %19 = getelementptr inbounds nuw %struct.ClusterInfo, ptr %18, i32 0, i32 7
  %20 = load ptr, ptr %19, align 8
  call void @appendConnStrVal(ptr noundef %5, ptr noundef %20)
  br label %21

21:                                               ; preds = %17, %2
  %22 = getelementptr inbounds nuw %struct.PQExpBufferData, ptr %5, i32 0, i32 0
  %23 = load ptr, ptr %22, align 8
  %24 = call ptr @PQconnectdb(ptr noundef %23)
  store ptr %24, ptr %6, align 8
  call void @termPQExpBuffer(ptr noundef %5)
  %25 = load ptr, ptr %6, align 8
  call void @llvm.lifetime.end.p0(i64 8, ptr %6) #9
  call void @llvm.lifetime.end.p0(i64 24, ptr %5) #9
  ret ptr %25
}