; Function Attrs: nounwind uwtable
define internal fastcc ptr @get_db_conn(ptr noundef readonly captures(none) %0, ptr noundef %1) unnamed_addr #0 {
  %3 = alloca %struct.PQExpBufferData, align 8
  call void @llvm.lifetime.start.p0(i64 24, ptr nonnull %3) #10
  call void @initPQExpBuffer(ptr noundef nonnull %3) #10
  call void @appendPQExpBufferStr(ptr noundef nonnull %3, ptr noundef nonnull @.str.38) #10
  call void @appendConnStrVal(ptr noundef nonnull %3, ptr noundef %1) #10
  call void @appendPQExpBufferStr(ptr noundef nonnull %3, ptr noundef nonnull @.str.39) #10
  %4 = load ptr, ptr getelementptr inbounds nuw (i8, ptr @os_info, i64 8), align 8
  call void @appendConnStrVal(ptr noundef nonnull %3, ptr noundef %4) #10
  %5 = getelementptr inbounds nuw i8, ptr %0, i64 176
  %6 = load i16, ptr %5, align 8
  %7 = zext i16 %6 to i32
  call void (ptr, ptr, ...) @appendPQExpBuffer(ptr noundef nonnull %3, ptr noundef nonnull @.str.40, i32 noundef %7) #10
  %8 = getelementptr inbounds nuw i8, ptr %0, i64 168
  %9 = load ptr, ptr %8, align 8
  %.not = icmp eq ptr %9, null
  br i1 %.not, label %12, label %10

10:                                               ; preds = %2
  call void @appendPQExpBufferStr(ptr noundef nonnull %3, ptr noundef nonnull @.str.41) #10
  %11 = load ptr, ptr %8, align 8
  call void @appendConnStrVal(ptr noundef nonnull %3, ptr noundef %11) #10
  br label %12

12:                                               ; preds = %10, %2
  %13 = load ptr, ptr %3, align 8
  %14 = call ptr @PQconnectdb(ptr noundef %13) #10
  call void @termPQExpBuffer(ptr noundef nonnull %3) #10
  call void @llvm.lifetime.end.p0(i64 24, ptr nonnull %3) #10
  ret ptr %14
}